Certificate:
    Data:
        Version: 3 (0x2)
        Serial Number: 4097 (0x1001)
    Signature Algorithm: md5WithRSAEncryption
        Issuer: C=CN, ST=HB, L=slc, O=uu, OU=msd, CN=qi/emailAddress=qliuutah@gmail.com
        Validity
            Not Before: Mar 29 15:40:50 2019 GMT
            Not After : Mar 28 15:40:50 2020 GMT
        Subject: C=CN, ST=HB, O=uu, OU=msd, CN=client/emailAddress=qliuutah@gmail.com
        Subject Public Key Info:
            Public Key Algorithm: rsaEncryption
                Public-Key: (4096 bit)
                Modulus:
                    00:bf:e1:82:07:d9:3a:61:4b:b9:d0:f2:b1:6c:8e:
                    33:31:b4:4f:c8:d3:da:dc:f5:4c:f5:87:a7:2d:92:
                    5e:20:13:c5:ac:7d:6c:a3:d7:a8:88:d6:0d:c2:af:
                    5b:2b:ab:fb:dc:5e:e9:71:bf:96:55:6d:39:57:a7:
                    82:44:47:04:0a:44:52:1e:aa:06:95:0e:ea:0f:4d:
                    a7:db:d9:b4:23:a6:14:6d:e6:63:4a:d2:9f:23:b9:
                    98:77:ff:3a:fc:83:64:12:36:e0:40:78:00:0a:b6:
                    35:18:5f:9d:86:7d:dc:7a:fd:37:b5:bf:cc:56:b8:
                    7a:fd:89:fe:5c:a1:54:9e:ae:0e:d7:70:5f:f0:42:
                    32:a9:71:07:20:8d:94:c2:ab:25:19:94:47:2d:69:
                    6a:ab:e2:04:5b:b7:bc:6b:8d:75:84:6a:f7:ca:ca:
                    b6:cb:3c:1d:c5:c0:64:8a:44:94:cd:48:28:a1:b4:
                    50:b8:be:d7:dd:92:fd:14:f7:8f:f3:73:bc:e3:b6:
                    32:03:dd:07:64:c2:42:ba:2f:21:91:e0:f0:4c:5f:
                    09:ec:0f:dd:94:28:3b:d8:1a:03:f5:90:54:48:f3:
                    8c:4b:a1:ea:cd:81:c8:45:eb:e3:b0:3b:e6:82:06:
                    44:c5:b1:34:16:4d:f8:a1:dd:8c:20:7f:92:e5:46:
                    1b:e3:3d:39:7f:41:f0:ba:c2:2a:c4:8c:6a:9f:01:
                    bf:a4:26:74:92:42:98:d8:1d:43:33:80:38:ef:fa:
                    b9:04:d9:b3:b3:79:05:e3:15:da:c5:cf:63:a3:46:
                    60:bd:94:56:1d:50:f1:0b:1d:81:95:b8:71:fe:08:
                    46:60:e3:fb:bf:0c:6c:ad:88:65:fb:c6:71:9b:cd:
                    8c:18:a5:c1:c1:aa:41:16:55:b7:bc:8a:73:83:ff:
                    e3:4b:89:19:6f:d3:6b:ca:1d:26:12:b4:0e:e2:9a:
                    75:9d:8f:52:26:86:5b:c9:b6:65:2b:d1:de:3c:1f:
                    b6:d0:cc:67:08:4a:51:70:31:59:ab:82:e8:ac:7c:
                    da:40:cb:b0:b1:fc:a1:22:59:c7:cc:cf:a4:76:74:
                    82:dd:7d:1b:f9:df:2f:75:09:ac:be:83:45:3d:ec:
                    f2:5c:d6:a7:76:b8:c8:b2:51:e9:d4:ea:f1:48:50:
                    68:35:81:ba:66:ca:39:15:8c:7b:05:1a:2f:83:4e:
                    d4:8a:a9:b0:e9:8f:fa:66:2a:cb:25:c5:e7:28:0b:
                    5a:1d:69:16:19:30:a5:63:56:ff:52:02:9f:93:e0:
                    2e:48:65:ff:8a:26:e7:5e:3d:de:d2:56:16:45:8d:
                    58:b2:f0:37:ab:7e:a3:5f:71:78:00:35:7a:f7:fd:
                    9c:4a:23
                Exponent: 65537 (0x10001)
        X509v3 extensions:
            X509v3 Basic Constraints: 
                CA:FALSE
            Netscape Comment: 
                OpenSSL Generated Certificate
            X509v3 Subject Key Identifier: 
                36:8B:55:BB:D6:9F:78:CF:FB:4F:DB:9C:48:B9:8C:75:6E:B3:55:77
            X509v3 Authority Key Identifier: 
                keyid:83:CB:FE:D0:98:5A:70:C9:ED:8C:12:3C:3B:01:72:64:60:CF:EC:D8
                DirName:/C=CN/ST=HB/L=slc/O=uu/OU=msd/CN=qi/emailAddress=qliuutah@gmail.com
                serial:B4:2A:3A:02:F2:F7:33:36

    Signature Algorithm: md5WithRSAEncryption
         1e:40:29:6b:07:93:59:39:6c:b7:46:70:21:50:d7:7f:17:3c:
         97:38:d7:c8:18:e2:e6:cb:2e:46:38:7b:e4:24:38:bd:ec:e1:
         f6:70:b4:f3:e5:e2:e1:dd:7d:4f:b5:7c:33:ca:e3:99:99:8a:
         63:6d:f8:3e:3a:0d:ff:1d:b2:a3:9b:59:9f:e2:3d:72:b9:01:
         86:07:ec:6b:f5:40:63:b9:30:d6:82:f3:2c:d4:4f:51:36:3e:
         be:2f:b9:43:88:22:8b:3d:55:79:5e:0e:2d:a7:20:42:6c:19:
         da:59:89:59:e1:c7:36:a6:f9:f5:ac:e4:ae:33:de:10:29:1d:
         c3:f4:dd:d5:cb:70:d6:12:4a:9d:c6:3b:8d:64:1e:1c:f4:aa:
         c4:ce:fa:08:85:9d:cd:80:4a:58:4f:ab:c4:6b:36:34:c7:83:
         b7:d6:4c:ad:0a:4f:d0:73:92:0b:52:a3:eb:08:6b:1b:a5:eb:
         ff:1b:0e:8e:91:cd:5b:6f:4d:b7:71:a3:d9:22:1a:d3:32:67:
         5f:c2:92:a8:38:39:ee:6b:4c:4d:ef:39:04:02:3d:b0:af:aa:
         39:b7:ce:fe:98:36:eb:2c:d5:4a:ae:97:c0:6d:14:78:3a:77:
         88:07:cd:26:ea:5f:b1:6a:b2:6d:e2:3f:2d:bc:0d:c4:00:8c:
         36:ab:b7:71:63:a2:fb:70:3e:54:0f:f3:d6:da:16:76:65:d3:
         fc:1e:e2:c9:b4:38:ee:95:24:8d:24:be:ef:4d:ab:f9:94:32:
         94:2e:44:df:c2:ea:f0:99:af:36:a4:b8:10:4b:99:72:7d:98:
         9b:bb:52:0d:92:78:39:99:a2:2d:f5:22:fa:42:58:8b:c3:2d:
         1e:1b:0e:9c:45:06:2b:94:f0:df:d7:46:c6:c7:10:74:ef:3b:
         7c:a8:e7:eb:c8:ca:a4:22:50:48:ab:57:72:82:89:db:72:14:
         2e:d2:78:c4:4d:33:a7:de:c2:18:d0:1f:f3:20:73:6a:48:42:
         6d:54:f7:0b:fa:ba:07:ea:c0:42:e2:ff:86:37:87:eb:24:64:
         e4:1e:4c:7f:8a:5f:32:37:3f:56:22:5d:83:fa:c0:cf:61:19:
         11:9d:3a:3d:0c:06:e4:34:15:50:46:ab:4c:e0:51:6e:cd:9a:
         f5:ae:d0:da:52:66:0d:5f:bd:22:1d:de:d1:ec:31:48:46:72:
         90:d0:b4:fa:69:7b:56:f2:8f:f1:4e:eb:58:7d:a5:a1:a6:25:
         10:b1:d0:e4:83:c1:13:5f:ae:56:d2:f3:37:74:c9:2d:a6:45:
         9f:0d:c0:7c:30:13:69:58:11:70:75:90:b2:3c:3b:8f:a8:e6:
         87:1d:73:79:a2:35:b3:4c
-----BEGIN CERTIFICATE-----
MIIGXjCCBEagAwIBAgICEAEwDQYJKoZIhvcNAQEEBQAwczELMAkGA1UEBhMCQ04x
CzAJBgNVBAgMAkhCMQwwCgYDVQQHDANzbGMxCzAJBgNVBAoMAnV1MQwwCgYDVQQL
DANtc2QxCzAJBgNVBAMMAnFpMSEwHwYJKoZIhvcNAQkBFhJxbGl1dXRhaEBnbWFp
bC5jb20wHhcNMTkwMzI5MTU0MDUwWhcNMjAwMzI4MTU0MDUwWjBpMQswCQYDVQQG
EwJDTjELMAkGA1UECAwCSEIxCzAJBgNVBAoMAnV1MQwwCgYDVQQLDANtc2QxDzAN
BgNVBAMMBmNsaWVudDEhMB8GCSqGSIb3DQEJARYScWxpdXV0YWhAZ21haWwuY29t
MIICIjANBgkqhkiG9w0BAQEFAAOCAg8AMIICCgKCAgEAv+GCB9k6YUu50PKxbI4z
MbRPyNPa3PVM9YenLZJeIBPFrH1so9eoiNYNwq9bK6v73F7pcb+WVW05V6eCREcE
CkRSHqoGlQ7qD02n29m0I6YUbeZjStKfI7mYd/86/INkEjbgQHgACrY1GF+dhn3c
ev03tb/MVrh6/Yn+XKFUnq4O13Bf8EIyqXEHII2UwqslGZRHLWlqq+IEW7e8a411
hGr3ysq2yzwdxcBkikSUzUgoobRQuL7X3ZL9FPeP83O847YyA90HZMJCui8hkeDw
TF8J7A/dlCg72BoD9ZBUSPOMS6HqzYHIRevjsDvmggZExbE0Fk34od2MIH+S5UYb
4z05f0HwusIqxIxqnwG/pCZ0kkKY2B1DM4A47/q5BNmzs3kF4xXaxc9jo0ZgvZRW
HVDxCx2Blbhx/ghGYOP7vwxsrYhl+8Zxm82MGKXBwapBFlW3vIpzg//jS4kZb9Nr
yh0mErQO4pp1nY9SJoZbybZlK9HePB+20MxnCEpRcDFZq4LorHzaQMuwsfyhIlnH
zM+kdnSC3X0b+d8vdQmsvoNFPezyXNandrjIslHp1OrxSFBoNYG6Zso5FYx7BRov
g07Uiqmw6Y/6ZirLJcXnKAtaHWkWGTClY1b/UgKfk+AuSGX/iibnXj3e0lYWRY1Y
svA3q36jX3F4ADV69/2cSiMCAwEAAaOCAQQwggEAMAkGA1UdEwQCMAAwLAYJYIZI
AYb4QgENBB8WHU9wZW5TU0wgR2VuZXJhdGVkIENlcnRpZmljYXRlMB0GA1UdDgQW
BBQ2i1W71p94z/tP25xIuYx1brNVdzCBpQYDVR0jBIGdMIGagBSDy/7QmFpwye2M
Ejw7AXJkYM/s2KF3pHUwczELMAkGA1UEBhMCQ04xCzAJBgNVBAgMAkhCMQwwCgYD
VQQHDANzbGMxCzAJBgNVBAoMAnV1MQwwCgYDVQQLDANtc2QxCzAJBgNVBAMMAnFp
MSEwHwYJKoZIhvcNAQkBFhJxbGl1dXRhaEBnbWFpbC5jb22CCQC0KjoC8vczNjAN
BgkqhkiG9w0BAQQFAAOCAgEAHkApaweTWTlst0ZwIVDXfxc8lzjXyBji5ssuRjh7
5CQ4vezh9nC08+Xi4d19T7V8M8rjmZmKY234PjoN/x2yo5tZn+I9crkBhgfsa/VA
Y7kw1oLzLNRPUTY+vi+5Q4giiz1VeV4OLacgQmwZ2lmJWeHHNqb59azkrjPeECkd
w/Td1ctw1hJKncY7jWQeHPSqxM76CIWdzYBKWE+rxGs2NMeDt9ZMrQpP0HOSC1Kj
6whrG6Xr/xsOjpHNW29Nt3Gj2SIa0zJnX8KSqDg57mtMTe85BAI9sK+qObfO/pg2
6yzVSq6XwG0UeDp3iAfNJupfsWqybeI/LbwNxACMNqu3cWOi+3A+VA/z1toWdmXT
/B7iybQ47pUkjSS+702r+ZQylC5E38Lq8JmvNqS4EEuZcn2Ym7tSDZJ4OZmiLfUi
+kJYi8MtHhsOnEUGK5Tw39dGxscQdO87fKjn68jKpCJQSKtXcoKJ23IULtJ4xE0z
p97CGNAf8yBzakhCbVT3C/q6B+rAQuL/hjeH6yRk5B5Mf4pfMjc/ViJdg/rAz2EZ
EZ06PQwG5DQVUEarTOBRbs2a9a7Q2lJmDV+9Ih3e0ewxSEZykNC0+ml7VvKP8U7r
WH2loaYlELHQ5IPBE1+uVtLzN3TJLaZFnw3AfDATaVgRcHWQsjw7j6jmhx1zeaI1
s0w=
-----END CERTIFICATE-----
