Certificate:
    Data:
        Version: 3 (0x2)
        Serial Number: 4096 (0x1000)
    Signature Algorithm: md5WithRSAEncryption
        Issuer: C=CN, ST=HB, L=slc, O=uu, OU=msd, CN=qi/emailAddress=qliuutah@gmail.com
        Validity
            Not Before: Mar 29 15:40:03 2019 GMT
            Not After : Mar 28 15:40:03 2020 GMT
        Subject: C=CN, ST=HB, O=uu, OU=msd, CN=server/emailAddress=qliuutah@gmail.com
        Subject Public Key Info:
            Public Key Algorithm: rsaEncryption
                Public-Key: (4096 bit)
                Modulus:
                    00:ba:10:a9:e7:9c:a5:99:5f:1b:20:3e:93:15:f8:
                    8e:ce:0c:a5:c6:e0:2e:9c:be:53:17:5e:b0:b5:8f:
                    01:4e:ec:01:45:62:cd:c3:89:df:99:8d:c0:9d:e7:
                    fb:a4:c5:ad:d5:36:90:ed:43:85:4d:4e:26:ec:20:
                    f7:e3:2c:5f:56:a7:91:b0:a2:29:49:6b:ae:d2:47:
                    c6:6c:48:87:94:d5:eb:1f:95:ed:cc:97:41:cd:77:
                    fb:5f:1e:80:2d:14:b5:e7:c6:7e:0a:13:6d:76:82:
                    5c:80:f1:35:45:51:82:bb:7e:14:97:98:48:64:75:
                    a5:40:01:ec:2d:8d:72:6e:d5:07:fd:2b:25:fe:61:
                    3f:69:a0:d4:bc:4f:b8:23:60:fb:47:1f:0d:5d:1a:
                    79:b1:62:ae:75:91:32:b5:73:67:92:1c:b6:6a:83:
                    9d:61:2e:f0:b4:74:36:c4:34:76:b0:c5:56:a6:c5:
                    d7:1c:fb:6c:e7:76:92:1b:ac:8d:7d:ca:b1:6f:d6:
                    23:34:40:89:51:1f:c5:b9:b2:db:ae:90:9f:30:c6:
                    cf:44:24:c6:8f:d9:a9:0a:a5:79:d0:4a:fa:ac:17:
                    86:82:f8:51:77:88:ea:4e:54:27:f0:0f:b6:43:c2:
                    a2:5d:55:2f:d1:39:1f:99:56:92:0a:4a:18:a3:0b:
                    5a:d5:16:c0:68:4e:f8:c5:97:88:48:38:91:47:2c:
                    2d:c7:c8:92:fc:87:44:35:44:6b:1d:53:10:14:22:
                    a8:3e:88:c9:91:81:67:7a:1d:70:c2:f1:75:b4:7c:
                    18:b6:40:f0:7f:b6:9d:81:06:a6:64:4e:97:54:9a:
                    ad:68:3c:b6:5e:33:28:3e:97:00:64:0b:46:4d:6d:
                    0d:39:eb:f5:bc:67:4b:bd:e5:dc:67:90:15:fd:a6:
                    4d:79:b5:61:38:d7:62:6d:c7:5c:0b:0d:70:6c:7f:
                    c7:9d:ce:d4:91:16:95:55:e4:e6:e4:b2:42:76:2b:
                    76:d7:d0:8e:b9:8b:4e:51:86:0c:1f:5f:bc:51:7b:
                    fe:64:2e:5e:3b:1f:a9:0d:08:1c:92:81:38:a4:68:
                    37:00:03:f4:7e:02:94:ad:b8:1c:8f:c6:64:9d:c2:
                    d4:9d:ef:19:32:43:64:77:b9:7b:dc:70:bd:cb:9c:
                    e8:de:fc:06:bf:9e:7b:82:ad:43:11:c1:84:0d:43:
                    48:4a:93:2e:7c:c6:42:1d:aa:80:81:42:f9:5b:3d:
                    d2:53:0d:a5:75:88:b0:47:13:70:1a:95:33:bd:bc:
                    ea:5c:54:28:d5:f3:a5:9c:a7:0d:43:60:66:fe:a4:
                    37:33:d4:82:a7:e8:69:e2:03:b8:0f:76:0e:fd:69:
                    33:97:c3
                Exponent: 65537 (0x10001)
        X509v3 extensions:
            X509v3 Basic Constraints: 
                CA:FALSE
            Netscape Comment: 
                OpenSSL Generated Certificate
            X509v3 Subject Key Identifier: 
                24:4B:1A:DC:4C:0C:DF:B5:D9:37:A2:BC:B3:75:32:2A:51:B6:6D:8D
            X509v3 Authority Key Identifier: 
                keyid:83:CB:FE:D0:98:5A:70:C9:ED:8C:12:3C:3B:01:72:64:60:CF:EC:D8
                DirName:/C=CN/ST=HB/L=slc/O=uu/OU=msd/CN=qi/emailAddress=qliuutah@gmail.com
                serial:B4:2A:3A:02:F2:F7:33:36

    Signature Algorithm: md5WithRSAEncryption
         14:ae:4f:2e:15:61:cf:49:cc:3c:ef:33:e2:5c:5f:9b:42:88:
         ef:e1:09:3a:c3:0e:a9:6e:d9:75:73:8b:f9:dd:89:a4:1e:ca:
         65:22:9f:3c:33:66:55:a8:72:65:c3:74:0b:1c:d9:e1:4a:3c:
         f2:7c:1d:c3:61:12:97:ca:96:05:8c:3f:3f:74:83:7b:c2:a6:
         ec:95:cb:8b:d8:db:a1:45:cd:a4:5d:df:84:fb:17:d6:ff:01:
         01:d2:b1:df:9a:6e:81:8c:27:6f:cb:a6:37:30:af:06:03:ea:
         45:de:01:6b:fa:8b:de:b5:9e:11:ea:51:27:d1:24:ba:30:f2:
         6d:00:cf:f0:f3:c7:3e:d0:82:01:ef:2e:b7:d7:6b:8b:c4:8f:
         18:64:9d:38:e0:53:13:d8:a2:50:4a:f6:52:8a:43:ef:8e:76:
         56:c0:7e:b7:f8:03:dd:e6:24:0d:0d:bc:01:29:f6:55:46:c6:
         c1:e5:94:f8:6f:bf:69:b1:de:21:0a:ff:9a:7d:36:11:5f:1a:
         93:33:a1:23:7a:26:bb:dd:57:62:f5:94:76:c4:bc:d5:f3:4c:
         1b:c5:b2:12:a4:3e:63:6c:93:ec:3b:7f:b1:9c:c8:16:26:53:
         d6:a9:47:18:70:f9:69:50:3c:18:37:0e:5b:e5:9f:e1:1c:62:
         03:e7:59:2f:6c:45:51:10:71:ef:72:f0:a0:b4:60:b4:40:cb:
         c2:64:fe:5b:a8:86:98:82:30:88:38:34:c7:90:11:82:4b:22:
         c1:94:ed:74:84:ef:78:ab:9e:2e:c4:a9:b5:09:14:7f:0c:d4:
         25:d0:bd:7d:47:88:28:77:a3:8b:1a:0c:81:3d:50:8e:40:4f:
         46:e4:0b:c7:4b:b3:3b:90:c3:1a:9e:fb:fb:f2:af:07:c7:1d:
         2d:46:97:1f:86:16:fb:b3:d7:f3:99:ee:dc:43:e2:9c:79:d3:
         42:12:fa:88:cf:48:c6:e1:f5:91:67:b5:6a:fc:69:13:d2:35:
         c1:41:0c:d1:14:74:91:5d:cc:f6:ae:15:1c:72:82:86:fc:75:
         72:f5:ca:91:78:d7:f9:36:6c:f5:6e:90:0e:58:55:45:e2:56:
         b5:58:b6:76:ce:92:38:1d:27:7a:3c:9f:d8:04:6b:14:6d:d6:
         c2:a9:2b:f7:ba:b2:b9:bc:e7:0d:66:cf:b0:c4:13:06:60:4a:
         02:03:bf:0b:51:9c:25:ac:eb:d7:86:2b:85:2c:3a:22:c2:a8:
         b4:61:49:94:c7:b7:4f:a0:f5:63:e4:e4:77:26:35:a6:6f:a4:
         eb:9a:ea:dc:3c:f1:ac:6f:53:4c:ee:92:77:ef:6c:3a:19:e7:
         f0:ce:2e:e3:a0:ea:0b:9f
-----BEGIN CERTIFICATE-----
MIIGXjCCBEagAwIBAgICEAAwDQYJKoZIhvcNAQEEBQAwczELMAkGA1UEBhMCQ04x
CzAJBgNVBAgMAkhCMQwwCgYDVQQHDANzbGMxCzAJBgNVBAoMAnV1MQwwCgYDVQQL
DANtc2QxCzAJBgNVBAMMAnFpMSEwHwYJKoZIhvcNAQkBFhJxbGl1dXRhaEBnbWFp
bC5jb20wHhcNMTkwMzI5MTU0MDAzWhcNMjAwMzI4MTU0MDAzWjBpMQswCQYDVQQG
EwJDTjELMAkGA1UECAwCSEIxCzAJBgNVBAoMAnV1MQwwCgYDVQQLDANtc2QxDzAN
BgNVBAMMBnNlcnZlcjEhMB8GCSqGSIb3DQEJARYScWxpdXV0YWhAZ21haWwuY29t
MIICIjANBgkqhkiG9w0BAQEFAAOCAg8AMIICCgKCAgEAuhCp55ylmV8bID6TFfiO
zgylxuAunL5TF16wtY8BTuwBRWLNw4nfmY3Anef7pMWt1TaQ7UOFTU4m7CD34yxf
VqeRsKIpSWuu0kfGbEiHlNXrH5XtzJdBzXf7Xx6ALRS158Z+ChNtdoJcgPE1RVGC
u34Ul5hIZHWlQAHsLY1ybtUH/Ssl/mE/aaDUvE+4I2D7Rx8NXRp5sWKudZEytXNn
khy2aoOdYS7wtHQ2xDR2sMVWpsXXHPts53aSG6yNfcqxb9YjNECJUR/FubLbrpCf
MMbPRCTGj9mpCqV50Er6rBeGgvhRd4jqTlQn8A+2Q8KiXVUv0TkfmVaSCkoYowta
1RbAaE74xZeISDiRRywtx8iS/IdENURrHVMQFCKoPojJkYFneh1wwvF1tHwYtkDw
f7adgQamZE6XVJqtaDy2XjMoPpcAZAtGTW0NOev1vGdLveXcZ5AV/aZNebVhONdi
bcdcCw1wbH/Hnc7UkRaVVeTm5LJCdit219COuYtOUYYMH1+8UXv+ZC5eOx+pDQgc
koE4pGg3AAP0fgKUrbgcj8ZkncLUne8ZMkNkd7l73HC9y5zo3vwGv557gq1DEcGE
DUNISpMufMZCHaqAgUL5Wz3SUw2ldYiwRxNwGpUzvbzqXFQo1fOlnKcNQ2Bm/qQ3
M9SCp+hp4gO4D3YO/Wkzl8MCAwEAAaOCAQQwggEAMAkGA1UdEwQCMAAwLAYJYIZI
AYb4QgENBB8WHU9wZW5TU0wgR2VuZXJhdGVkIENlcnRpZmljYXRlMB0GA1UdDgQW
BBQkSxrcTAzftdk3oryzdTIqUbZtjTCBpQYDVR0jBIGdMIGagBSDy/7QmFpwye2M
Ejw7AXJkYM/s2KF3pHUwczELMAkGA1UEBhMCQ04xCzAJBgNVBAgMAkhCMQwwCgYD
VQQHDANzbGMxCzAJBgNVBAoMAnV1MQwwCgYDVQQLDANtc2QxCzAJBgNVBAMMAnFp
MSEwHwYJKoZIhvcNAQkBFhJxbGl1dXRhaEBnbWFpbC5jb22CCQC0KjoC8vczNjAN
BgkqhkiG9w0BAQQFAAOCAgEAFK5PLhVhz0nMPO8z4lxfm0KI7+EJOsMOqW7ZdXOL
+d2JpB7KZSKfPDNmVahyZcN0CxzZ4Uo88nwdw2ESl8qWBYw/P3SDe8Km7JXLi9jb
oUXNpF3fhPsX1v8BAdKx35pugYwnb8umNzCvBgPqRd4Ba/qL3rWeEepRJ9EkujDy
bQDP8PPHPtCCAe8ut9dri8SPGGSdOOBTE9iiUEr2UopD7452VsB+t/gD3eYkDQ28
ASn2VUbGweWU+G+/abHeIQr/mn02EV8akzOhI3omu91XYvWUdsS81fNMG8WyEqQ+
Y2yT7Dt/sZzIFiZT1qlHGHD5aVA8GDcOW+Wf4RxiA+dZL2xFURBx73LwoLRgtEDL
wmT+W6iGmIIwiDg0x5ARgksiwZTtdITveKueLsSptQkUfwzUJdC9fUeIKHejixoM
gT1QjkBPRuQLx0uzO5DDGp77+/KvB8cdLUaXH4YW+7PX85nu3EPinHnTQhL6iM9I
xuH1kWe1avxpE9I1wUEM0RR0kV3M9q4VHHKChvx1cvXKkXjX+TZs9W6QDlhVReJW
tVi2ds6SOB0nejyf2ARrFG3Wwqkr97qyubznDWbPsMQTBmBKAgO/C1GcJazr14Yr
hSw6IsKotGFJlMe3T6D1Y+TkdyY1pm+k65rq3DzxrG9TTO6Sd+9sOhnn8M4u46Dq
C58=
-----END CERTIFICATE-----
